target datalayout = "e-m:e-p270:32:32-p271:32:32-p272:64:64-i64:64-i128:128-f80:128-n8:16:32:64-S128"
target triple = "x86_64-pc-linux-gnu"

%struct.hm_fragment_st = type { %struct.hm_header_st, ptr, ptr }
%struct.hm_header_st = type { i8, i32, i16, i32, i32, i32, i16 }
%struct.ssl_st = type { i32, i16, i16, ptr, ptr, ptr, ptr, ptr, i32, i32, ptr, ptr, i32, i32, ptr, ptr, ptr, ptr, ptr, ptr, ptr, ptr, i32, i32, [32 x i8], ptr, ptr, ptr, ptr, ptr, ptr, ptr, i64, %struct.crypto_ex_data_st, ptr, i32, i32, i32, i32, i16, ptr, i32, i64, ptr, ptr, ptr, ptr, ptr, ptr, i32, i32, ptr, ptr, i8, i8, i32 }
%struct.crypto_ex_data_st = type { ptr }
%struct.dtls1_state_st = type { i32, [256 x i8], i64, i16, i16, %struct.dtls1_bitmap_st, i16, i16, i16, [8 x i8], ptr, ptr, i32, %struct.hm_header_st, i32, %struct.timeval, i16 }
%struct.dtls1_bitmap_st = type { i64, i64 }
%struct.timeval = type { i64, i64 }
%struct._pitem = type { [8 x i8], ptr, ptr }

; Function Attrs: nounwind uwtable
define hidden void @dtls1_hm_fragment_free(ptr noundef %0) #0 {
  %2 = alloca ptr, align 8
  store ptr %0, ptr %2, align 8, !tbaa !6
  %3 = load ptr, ptr %2, align 8, !tbaa !6
  %4 = icmp eq ptr %3, null
  br i1 %4, label %5, label %6

5:                                                ; preds = %1
  br label %14

6:                                                ; preds = %1
  %7 = load ptr, ptr %2, align 8, !tbaa !6
  %8 = getelementptr inbounds nuw %struct.hm_fragment_st, ptr %7, i32 0, i32 1
  %9 = load ptr, ptr %8, align 8, !tbaa !11
  call void @free(ptr noundef %9) #8
  %10 = load ptr, ptr %2, align 8, !tbaa !6
  %11 = getelementptr inbounds nuw %struct.hm_fragment_st, ptr %10, i32 0, i32 2
  %12 = load ptr, ptr %11, align 8, !tbaa !17
  call void @free(ptr noundef %12) #8
  %13 = load ptr, ptr %2, align 8, !tbaa !6
  call void @free(ptr noundef %13) #8
  br label %14

14:                                               ; preds = %6, %5
  ret void
}

; Function Attrs: nounwind uwtable
define hidden void @dtls1_clear_record_buffer(ptr noundef %0) #0 {
  %2 = alloca ptr, align 8
  %3 = alloca ptr, align 8
  store ptr %0, ptr %2, align 8, !tbaa !18
  call void @llvm.lifetime.start.p0(i64 8, ptr %3) #8
  %4 = load ptr, ptr %2, align 8, !tbaa !18
  %5 = getelementptr inbounds nuw %struct.ssl_st, ptr %4, i32 0, i32 15
  %6 = load ptr, ptr %5, align 8, !tbaa !21
  %7 = getelementptr inbounds nuw %struct.dtls1_state_st, ptr %6, i32 0, i32 11
  %8 = load ptr, ptr %7, align 8, !tbaa !102
  %9 = call ptr @pqueue_pop(ptr noundef %8)
  store ptr %9, ptr %3, align 8, !tbaa !67
  br label %10

10:                                               ; preds = %18, %1
  %11 = load ptr, ptr %3, align 8, !tbaa !67
  %12 = icmp ne ptr %11, null
  br i1 %12, label %13, label %25

13:                                               ; preds = %10
  %14 = load ptr, ptr %3, align 8, !tbaa !67
  %15 = getelementptr inbounds nuw %struct._pitem, ptr %14, i32 0, i32 1
  %16 = load ptr, ptr %15, align 8, !tbaa !89
  call void @dtls1_hm_fragment_free(ptr noundef %16)
  %17 = load ptr, ptr %3, align 8, !tbaa !67
  call void @pitem_free(ptr noundef %17)
  br label %18

18:                                               ; preds = %13
  %19 = load ptr, ptr %2, align 8, !tbaa !18
  %20 = getelementptr inbounds nuw %struct.ssl_st, ptr %19, i32 0, i32 15
  %21 = load ptr, ptr %20, align 8, !tbaa !21
  %22 = getelementptr inbounds nuw %struct.dtls1_state_st, ptr %21, i32 0, i32 11
  %23 = load ptr, ptr %22, align 8, !tbaa !102
  %24 = call ptr @pqueue_pop(ptr noundef %23)
  store ptr %24, ptr %3, align 8, !tbaa !67
  br label %10, !llvm.loop !114

25:                                               ; preds = %10
  call void @llvm.lifetime.end.p0(i64 8, ptr %3) #8
  ret void
}