; Function Attrs: nounwind uwtable
define hidden void @dtls1_clear_record_buffer(ptr noundef readonly captures(none) %0) local_unnamed_addr #2 {
  %2 = getelementptr inbounds nuw i8, ptr %0, i64 88
  %3 = load ptr, ptr %2, align 8, !tbaa !16
  %4 = getelementptr inbounds nuw i8, ptr %3, i64 320
  %5 = load ptr, ptr %4, align 8, !tbaa !93
  %6 = tail call ptr @pqueue_pop(ptr noundef %5) #13
  %.not5 = icmp eq ptr %6, null
  br i1 %.not5, label %._crit_edge, label %.lr.ph

.lr.ph:                                           ; preds = %1, %dtls1_hm_fragment_free.exit
  %.06 = phi ptr [ %18, %dtls1_hm_fragment_free.exit ], [ %6, %1 ]
  %7 = getelementptr inbounds nuw i8, ptr %.06, i64 8
  %8 = load ptr, ptr %7, align 8, !tbaa !79
  %9 = icmp eq ptr %8, null
  br i1 %9, label %dtls1_hm_fragment_free.exit, label %10

10:                                               ; preds = %.lr.ph
  %11 = getelementptr inbounds nuw i8, ptr %8, i64 32
  %12 = load ptr, ptr %11, align 8, !tbaa !6
  tail call void @free(ptr noundef %12) #13
  %13 = getelementptr inbounds nuw i8, ptr %8, i64 40
  %14 = load ptr, ptr %13, align 8, !tbaa !15
  tail call void @free(ptr noundef %14) #13
  tail call void @free(ptr noundef nonnull %8) #13
  br label %dtls1_hm_fragment_free.exit

dtls1_hm_fragment_free.exit:                      ; preds = %.lr.ph, %10
  tail call void @pitem_free(ptr noundef nonnull %.06) #13
  %15 = load ptr, ptr %2, align 8, !tbaa !16
  %16 = getelementptr inbounds nuw i8, ptr %15, i64 320
  %17 = load ptr, ptr %16, align 8, !tbaa !93
  %18 = tail call ptr @pqueue_pop(ptr noundef %17) #13
  %.not = icmp eq ptr %18, null
  br i1 %.not, label %._crit_edge, label %.lr.ph, !llvm.loop !108

._crit_edge:                                      ; preds = %dtls1_hm_fragment_free.exit, %1
  ret void
}